target datalayout = "e-m:e-p270:32:32-p271:32:32-p272:64:64-i64:64-i128:128-f80:128-n8:16:32:64-S128"
target triple = "x86_64-pc-linux-gnu"

%class.JVMCIEnv = type { ptr, i8, i8, ptr, i8, i8, ptr, i32, i32, ptr, ptr }
%class.JVMCIObject = type <{ ptr, i8, [7 x i8] }>
%class.JVMCIObject.base = type <{ ptr, i8 }>
%class.JVMCIArray.base = type { %class.JVMCIObject.base }
%class.JVMCIPrimitiveArray = type { %class.JVMCIArray.base, [7 x i8] }

; Function Attrs: mustprogress nounwind uwtable
define linkonce_odr hidden void @_ZN12HotSpotJVMCI26HotSpotStackFrameReference18set_localIsVirtualEP8JVMCIEnv11JVMCIObject19JVMCIPrimitiveArray(ptr noundef %0, ptr %1, i8 %2, ptr %3, i8 %4) #1 comdat align 2 {
  %6 = alloca %class.JVMCIObject, align 8
  %7 = alloca %class.JVMCIPrimitiveArray, align 8
  %8 = alloca ptr, align 8
  %9 = alloca %class.JVMCIObject, align 8
  %10 = alloca %class.JVMCIPrimitiveArray, align 8
  %11 = getelementptr inbounds { ptr, i8 }, ptr %6, i32 0, i32 0
  store ptr %1, ptr %11, align 8
  %12 = getelementptr inbounds { ptr, i8 }, ptr %6, i32 0, i32 1
  store i8 %2, ptr %12, align 8
  %13 = getelementptr inbounds { ptr, i8 }, ptr %7, i32 0, i32 0
  store ptr %3, ptr %13, align 8
  %14 = getelementptr inbounds { ptr, i8 }, ptr %7, i32 0, i32 1
  store i8 %4, ptr %14, align 8
  store ptr %0, ptr %8, align 8
  %15 = load ptr, ptr %8, align 8
  call void @llvm.memcpy.p0.p0.i64(ptr align 8 %9, ptr align 8 %6, i64 16, i1 false)
  %16 = getelementptr inbounds { ptr, i8 }, ptr %9, i32 0, i32 0
  %17 = load ptr, ptr %16, align 8
  %18 = getelementptr inbounds { ptr, i8 }, ptr %9, i32 0, i32 1
  %19 = load i8, ptr %18, align 8
  %20 = call noundef ptr @_ZN12HotSpotJVMCI7resolveE11JVMCIObject(ptr %17, i8 %19)
  call void @llvm.memcpy.p0.p0.i64(ptr align 8 %10, ptr align 8 %7, i64 16, i1 false)
  %21 = getelementptr inbounds { ptr, i8 }, ptr %10, i32 0, i32 0
  %22 = load ptr, ptr %21, align 8
  %23 = getelementptr inbounds { ptr, i8 }, ptr %10, i32 0, i32 1
  %24 = load i8, ptr %23, align 8
  %25 = call noundef ptr @_ZN12HotSpotJVMCI7resolveE19JVMCIPrimitiveArray(ptr %22, i8 %24)
  call void @_ZN12HotSpotJVMCI26HotSpotStackFrameReference18set_localIsVirtualEP8JVMCIEnvP7oopDescP16typeArrayOopDesc(ptr noundef %15, ptr noundef %20, ptr noundef %25)
  ret void
}

; Function Attrs: mustprogress nounwind uwtable
define linkonce_odr hidden noundef zeroext i1 @_ZN8JVMCIEnv10is_hotspotEv(ptr noundef nonnull align 8 dereferenceable(64) %0) #1 comdat align 2 {
  %2 = alloca ptr, align 8
  store ptr %0, ptr %2, align 8
  %3 = load ptr, ptr %2, align 8
  %4 = getelementptr inbounds %class.JVMCIEnv, ptr %3, i32 0, i32 4
  %5 = load i8, ptr %4, align 8
  %6 = trunc i8 %5 to i1
  ret i1 %6
}

; Function Attrs: mustprogress nounwind uwtable
define hidden void @_ZN8JVMCIEnv45set_HotSpotStackFrameReference_localIsVirtualE11JVMCIObject19JVMCIPrimitiveArray(ptr noundef nonnull align 8 dereferenceable(64) %0, ptr %1, i8 %2, ptr %3, i8 %4) #1 align 2 {
  %6 = alloca %class.JVMCIObject, align 8
  %7 = alloca %class.JVMCIPrimitiveArray, align 8
  %8 = alloca ptr, align 8
  %9 = alloca %class.JVMCIObject, align 8
  %10 = alloca %class.JVMCIPrimitiveArray, align 8
  %11 = alloca %class.JVMCIObject, align 8
  %12 = alloca %class.JVMCIPrimitiveArray, align 8
  %13 = getelementptr inbounds { ptr, i8 }, ptr %6, i32 0, i32 0
  store ptr %1, ptr %13, align 8
  %14 = getelementptr inbounds { ptr, i8 }, ptr %6, i32 0, i32 1
  store i8 %2, ptr %14, align 8
  %15 = getelementptr inbounds { ptr, i8 }, ptr %7, i32 0, i32 0
  store ptr %3, ptr %15, align 8
  %16 = getelementptr inbounds { ptr, i8 }, ptr %7, i32 0, i32 1
  store i8 %4, ptr %16, align 8
  store ptr %0, ptr %8, align 8
  %17 = load ptr, ptr %8, align 8
  %18 = call noundef zeroext i1 @_ZN8JVMCIEnv10is_hotspotEv(ptr noundef nonnull align 8 dereferenceable(64) %17)
  br i1 %18, label %19, label %28

19:                                               ; preds = %5
  call void @llvm.memcpy.p0.p0.i64(ptr align 8 %9, ptr align 8 %6, i64 16, i1 false)
  call void @llvm.memcpy.p0.p0.i64(ptr align 8 %10, ptr align 8 %7, i64 16, i1 false)
  %20 = getelementptr inbounds { ptr, i8 }, ptr %9, i32 0, i32 0
  %21 = load ptr, ptr %20, align 8
  %22 = getelementptr inbounds { ptr, i8 }, ptr %9, i32 0, i32 1
  %23 = load i8, ptr %22, align 8
  %24 = getelementptr inbounds { ptr, i8 }, ptr %10, i32 0, i32 0
  %25 = load ptr, ptr %24, align 8
  %26 = getelementptr inbounds { ptr, i8 }, ptr %10, i32 0, i32 1
  %27 = load i8, ptr %26, align 8
  call void @_ZN12HotSpotJVMCI26HotSpotStackFrameReference18set_localIsVirtualEP8JVMCIEnv11JVMCIObject19JVMCIPrimitiveArray(ptr noundef %17, ptr %21, i8 %23, ptr %25, i8 %27)
  br label %37

28:                                               ; preds = %5
  call void @llvm.memcpy.p0.p0.i64(ptr align 8 %11, ptr align 8 %6, i64 16, i1 false)
  call void @llvm.memcpy.p0.p0.i64(ptr align 8 %12, ptr align 8 %7, i64 16, i1 false)
  %29 = getelementptr inbounds { ptr, i8 }, ptr %11, i32 0, i32 0
  %30 = load ptr, ptr %29, align 8
  %31 = getelementptr inbounds { ptr, i8 }, ptr %11, i32 0, i32 1
  %32 = load i8, ptr %31, align 8
  %33 = getelementptr inbounds { ptr, i8 }, ptr %12, i32 0, i32 0
  %34 = load ptr, ptr %33, align 8
  %35 = getelementptr inbounds { ptr, i8 }, ptr %12, i32 0, i32 1
  %36 = load i8, ptr %35, align 8
  call void @_ZN8JNIJVMCI26HotSpotStackFrameReference18set_localIsVirtualEP8JVMCIEnv11JVMCIObject19JVMCIPrimitiveArray(ptr noundef %17, ptr %30, i8 %32, ptr %34, i8 %36)
  br label %37

37:                                               ; preds = %28, %19
  ret void
}